target datalayout = "e-m:e-p270:32:32-p271:32:32-p272:64:64-i64:64-i128:128-f80:128-n8:16:32:64-S128"
target triple = "x86_64-pc-linux-gnu"

%struct.lua_State = type { ptr, i8, i8, i8, i8, i16, %union.StkIdRel, ptr, ptr, %union.StkIdRel, %union.StkIdRel, ptr, %union.StkIdRel, ptr, ptr, ptr, %struct.CallInfo, ptr, i64, i32, i32, i32, i32, i32, %struct.anon.3 }
%union.StkIdRel = type { ptr }
%struct.CallInfo = type { %union.StkIdRel, %union.StkIdRel, ptr, ptr, %union.anon, %union.anon.2, i32 }
%union.anon = type { %struct.anon.1 }
%struct.anon.1 = type { ptr, i64, i64 }
%union.anon.2 = type { i32 }
%struct.anon.3 = type { i32, i32 }

; Function Attrs: nounwind uwtable
define internal i32 @finishpcallk(ptr noundef %0, ptr noundef %1) #0 {
  %3 = alloca ptr, align 8
  %4 = alloca ptr, align 8
  %5 = alloca i32, align 4
  %6 = alloca ptr, align 8
  store ptr %0, ptr %3, align 8, !tbaa !4
  store ptr %1, ptr %4, align 8, !tbaa !54
  call void @llvm.lifetime.start.p0(i64 4, ptr %5) #11
  %7 = load ptr, ptr %4, align 8, !tbaa !54
  %8 = getelementptr inbounds nuw %struct.CallInfo, ptr %7, i32 0, i32 6
  %9 = load i32, ptr %8, align 4, !tbaa !56
  %10 = lshr i32 %9, 12
  %11 = and i32 %10, 7
  store i32 %11, ptr %5, align 4, !tbaa !9
  %12 = load i32, ptr %5, align 4, !tbaa !9
  %13 = icmp eq i32 %12, 0
  %14 = zext i1 %13 to i32
  %15 = icmp ne i32 %14, 0
  %16 = zext i1 %15 to i32
  %17 = sext i32 %16 to i64
  %18 = call i64 @llvm.expect.i64(i64 %17, i64 1)
  %19 = icmp ne i64 %18, 0
  br i1 %19, label %20, label %21

20:                                               ; preds = %2
  store i32 1, ptr %5, align 4, !tbaa !9
  br label %54

21:                                               ; preds = %2
  call void @llvm.lifetime.start.p0(i64 8, ptr %6) #11
  %22 = load ptr, ptr %3, align 8, !tbaa !4
  %23 = getelementptr inbounds nuw %struct.lua_State, ptr %22, i32 0, i32 10
  %24 = load ptr, ptr %23, align 8, !tbaa !34
  %25 = load ptr, ptr %4, align 8, !tbaa !54
  %26 = getelementptr inbounds nuw %struct.CallInfo, ptr %25, i32 0, i32 5
  %27 = load i32, ptr %26, align 8, !tbaa !34
  %28 = sext i32 %27 to i64
  %29 = getelementptr inbounds i8, ptr %24, i64 %28
  store ptr %29, ptr %6, align 8, !tbaa !11
  %30 = load ptr, ptr %4, align 8, !tbaa !54
  %31 = getelementptr inbounds nuw %struct.CallInfo, ptr %30, i32 0, i32 6
  %32 = load i32, ptr %31, align 4, !tbaa !56
  %33 = and i32 %32, 524288
  %34 = icmp ne i32 %33, 0
  %35 = select i1 %34, i32 1, i32 0
  %36 = trunc i32 %35 to i8
  %37 = load ptr, ptr %3, align 8, !tbaa !4
  %38 = getelementptr inbounds nuw %struct.lua_State, ptr %37, i32 0, i32 4
  store i8 %36, ptr %38, align 1, !tbaa !58
  %39 = load ptr, ptr %3, align 8, !tbaa !4
  %40 = load ptr, ptr %6, align 8, !tbaa !11
  %41 = load i32, ptr %5, align 4, !tbaa !9
  %42 = call ptr @luaF_close(ptr noundef %39, ptr noundef %40, i32 noundef %41, i32 noundef 1)
  store ptr %42, ptr %6, align 8, !tbaa !11
  %43 = load ptr, ptr %3, align 8, !tbaa !4
  %44 = load i32, ptr %5, align 4, !tbaa !9
  %45 = load ptr, ptr %6, align 8, !tbaa !11
  call void @luaD_seterrorobj(ptr noundef %43, i32 noundef %44, ptr noundef %45)
  %46 = load ptr, ptr %3, align 8, !tbaa !4
  call void @luaD_shrinkstack(ptr noundef %46)
  %47 = load ptr, ptr %4, align 8, !tbaa !54
  %48 = getelementptr inbounds nuw %struct.CallInfo, ptr %47, i32 0, i32 6
  %49 = load i32, ptr %48, align 4, !tbaa !56
  %50 = and i32 %49, -28673
  %51 = or i32 %50, 0
  %52 = load ptr, ptr %4, align 8, !tbaa !54
  %53 = getelementptr inbounds nuw %struct.CallInfo, ptr %52, i32 0, i32 6
  store i32 %51, ptr %53, align 4, !tbaa !56
  call void @llvm.lifetime.end.p0(i64 8, ptr %6) #11
  br label %54

54:                                               ; preds = %21, %20
  %55 = load ptr, ptr %4, align 8, !tbaa !54
  %56 = getelementptr inbounds nuw %struct.CallInfo, ptr %55, i32 0, i32 6
  %57 = load i32, ptr %56, align 4, !tbaa !56
  %58 = and i32 %57, -2097153
  store i32 %58, ptr %56, align 4, !tbaa !56
  %59 = load ptr, ptr %4, align 8, !tbaa !54
  %60 = getelementptr inbounds nuw %struct.CallInfo, ptr %59, i32 0, i32 4
  %61 = getelementptr inbounds nuw %struct.anon.1, ptr %60, i32 0, i32 1
  %62 = load i64, ptr %61, align 8, !tbaa !34
  %63 = load ptr, ptr %3, align 8, !tbaa !4
  %64 = getelementptr inbounds nuw %struct.lua_State, ptr %63, i32 0, i32 18
  store i64 %62, ptr %64, align 8, !tbaa !92
  %65 = load i32, ptr %5, align 4, !tbaa !9
  call void @llvm.lifetime.end.p0(i64 4, ptr %5) #11
  ret i32 %65
}

; Function Attrs: nounwind uwtable
define internal void @finishCcall(ptr noundef %0, ptr noundef %1) #0 {
  %3 = alloca ptr, align 8
  %4 = alloca ptr, align 8
  %5 = alloca i32, align 4
  %6 = alloca i32, align 4
  store ptr %0, ptr %3, align 8, !tbaa !4
  store ptr %1, ptr %4, align 8, !tbaa !54
  call void @llvm.lifetime.start.p0(i64 4, ptr %5) #11
  %7 = load ptr, ptr %4, align 8, !tbaa !54
  %8 = getelementptr inbounds nuw %struct.CallInfo, ptr %7, i32 0, i32 6
  %9 = load i32, ptr %8, align 4, !tbaa !56
  %10 = and i32 %9, 131072
  %11 = icmp ne i32 %10, 0
  br i1 %11, label %12, label %16

12:                                               ; preds = %2
  %13 = load ptr, ptr %4, align 8, !tbaa !54
  %14 = getelementptr inbounds nuw %struct.CallInfo, ptr %13, i32 0, i32 5
  %15 = load i32, ptr %14, align 8, !tbaa !34
  store i32 %15, ptr %5, align 4, !tbaa !9
  br label %56

16:                                               ; preds = %2
  call void @llvm.lifetime.start.p0(i64 4, ptr %6) #11
  store i32 1, ptr %6, align 4, !tbaa !9
  %17 = load ptr, ptr %4, align 8, !tbaa !54
  %18 = getelementptr inbounds nuw %struct.CallInfo, ptr %17, i32 0, i32 6
  %19 = load i32, ptr %18, align 4, !tbaa !56
  %20 = and i32 %19, 2097152
  %21 = icmp ne i32 %20, 0
  br i1 %21, label %22, label %26

22:                                               ; preds = %16
  %23 = load ptr, ptr %3, align 8, !tbaa !4
  %24 = load ptr, ptr %4, align 8, !tbaa !54
  %25 = call i32 @finishpcallk(ptr noundef %23, ptr noundef %24)
  store i32 %25, ptr %6, align 4, !tbaa !9
  br label %26

26:                                               ; preds = %22, %16
  %27 = load ptr, ptr %3, align 8, !tbaa !4
  %28 = getelementptr inbounds nuw %struct.lua_State, ptr %27, i32 0, i32 8
  %29 = load ptr, ptr %28, align 8, !tbaa !53
  %30 = getelementptr inbounds nuw %struct.CallInfo, ptr %29, i32 0, i32 1
  %31 = load ptr, ptr %30, align 8, !tbaa !34
  %32 = load ptr, ptr %3, align 8, !tbaa !4
  %33 = getelementptr inbounds nuw %struct.lua_State, ptr %32, i32 0, i32 6
  %34 = load ptr, ptr %33, align 8, !tbaa !34
  %35 = icmp ult ptr %31, %34
  br i1 %35, label %36, label %44

36:                                               ; preds = %26
  %37 = load ptr, ptr %3, align 8, !tbaa !4
  %38 = getelementptr inbounds nuw %struct.lua_State, ptr %37, i32 0, i32 6
  %39 = load ptr, ptr %38, align 8, !tbaa !34
  %40 = load ptr, ptr %3, align 8, !tbaa !4
  %41 = getelementptr inbounds nuw %struct.lua_State, ptr %40, i32 0, i32 8
  %42 = load ptr, ptr %41, align 8, !tbaa !53
  %43 = getelementptr inbounds nuw %struct.CallInfo, ptr %42, i32 0, i32 1
  store ptr %39, ptr %43, align 8, !tbaa !34
  br label %44

44:                                               ; preds = %36, %26
  %45 = load ptr, ptr %4, align 8, !tbaa !54
  %46 = getelementptr inbounds nuw %struct.CallInfo, ptr %45, i32 0, i32 4
  %47 = getelementptr inbounds nuw %struct.anon.1, ptr %46, i32 0, i32 0
  %48 = load ptr, ptr %47, align 8, !tbaa !34
  %49 = load ptr, ptr %3, align 8, !tbaa !4
  %50 = load i32, ptr %6, align 4, !tbaa !9
  %51 = load ptr, ptr %4, align 8, !tbaa !54
  %52 = getelementptr inbounds nuw %struct.CallInfo, ptr %51, i32 0, i32 4
  %53 = getelementptr inbounds nuw %struct.anon.1, ptr %52, i32 0, i32 2
  %54 = load i64, ptr %53, align 8, !tbaa !34
  %55 = call i32 %48(ptr noundef %49, i32 noundef %50, i64 noundef %54)
  store i32 %55, ptr %5, align 4, !tbaa !9
  call void @llvm.lifetime.end.p0(i64 4, ptr %6) #11
  br label %56

56:                                               ; preds = %44, %12
  %57 = load ptr, ptr %3, align 8, !tbaa !4
  %58 = load ptr, ptr %4, align 8, !tbaa !54
  %59 = load i32, ptr %5, align 4, !tbaa !9
  call void @luaD_poscall(ptr noundef %57, ptr noundef %58, i32 noundef %59)
  call void @llvm.lifetime.end.p0(i64 4, ptr %5) #11
  ret void
}

; Function Attrs: nounwind uwtable
define internal void @unroll(ptr noundef %0, ptr noundef %1) #0 {
  %3 = alloca ptr, align 8
  %4 = alloca ptr, align 8
  %5 = alloca ptr, align 8
  store ptr %0, ptr %3, align 8, !tbaa !4
  store ptr %1, ptr %4, align 8, !tbaa !47
  call void @llvm.lifetime.start.p0(i64 8, ptr %5) #11
  br label %6

6:                                                ; preds = %26, %2
  %7 = load ptr, ptr %3, align 8, !tbaa !4
  %8 = getelementptr inbounds nuw %struct.lua_State, ptr %7, i32 0, i32 8
  %9 = load ptr, ptr %8, align 8, !tbaa !53
  store ptr %9, ptr %5, align 8, !tbaa !54
  %10 = load ptr, ptr %3, align 8, !tbaa !4
  %11 = getelementptr inbounds nuw %struct.lua_State, ptr %10, i32 0, i32 16
  %12 = icmp ne ptr %9, %11
  br i1 %12, label %13, label %27

13:                                               ; preds = %6
  %14 = load ptr, ptr %5, align 8, !tbaa !54
  %15 = getelementptr inbounds nuw %struct.CallInfo, ptr %14, i32 0, i32 6
  %16 = load i32, ptr %15, align 4, !tbaa !56
  %17 = and i32 %16, 32768
  %18 = icmp ne i32 %17, 0
  br i1 %18, label %19, label %22

19:                                               ; preds = %13
  %20 = load ptr, ptr %3, align 8, !tbaa !4
  %21 = load ptr, ptr %5, align 8, !tbaa !54
  call void @finishCcall(ptr noundef %20, ptr noundef %21)
  br label %26

22:                                               ; preds = %13
  %23 = load ptr, ptr %3, align 8, !tbaa !4
  call void @luaV_finishOp(ptr noundef %23)
  %24 = load ptr, ptr %3, align 8, !tbaa !4
  %25 = load ptr, ptr %5, align 8, !tbaa !54
  call void @luaV_execute(ptr noundef %24, ptr noundef %25)
  br label %26

26:                                               ; preds = %22, %19
  br label %6

27:                                               ; preds = %6
  call void @llvm.lifetime.end.p0(i64 8, ptr %5) #11
  ret void
}