; Function Attrs: nounwind uwtable
define internal void @unroll(ptr noundef %0, ptr readnone captures(none) %1) #0 {
  %3 = getelementptr inbounds nuw i8, ptr %0, i64 32
  %4 = getelementptr inbounds nuw i8, ptr %0, i64 96
  %5 = load ptr, ptr %3, align 8, !tbaa !46
  %.not9 = icmp eq ptr %5, %4
  br i1 %.not9, label %._crit_edge, label %.lr.ph

.lr.ph:                                           ; preds = %2
  %6 = getelementptr inbounds nuw i8, ptr %0, i64 48
  %7 = getelementptr inbounds nuw i8, ptr %0, i64 11
  %8 = getelementptr inbounds nuw i8, ptr %0, i64 168
  %9 = getelementptr inbounds nuw i8, ptr %0, i64 16
  br label %10

10:                                               ; preds = %.lr.ph, %56
  %11 = phi ptr [ %5, %.lr.ph ], [ %57, %56 ]
  %12 = getelementptr inbounds nuw i8, ptr %11, i64 60
  %13 = load i32, ptr %12, align 4, !tbaa !43
  %14 = and i32 %13, 32768
  %.not8 = icmp eq i32 %14, 0
  br i1 %.not8, label %55, label %15

15:                                               ; preds = %10
  %16 = and i32 %13, 131072
  %.not.i = icmp eq i32 %16, 0
  br i1 %.not.i, label %20, label %17

17:                                               ; preds = %15
  %18 = getelementptr inbounds nuw i8, ptr %11, i64 56
  %19 = load i32, ptr %18, align 8, !tbaa !27
  br label %finishCcall.exit

20:                                               ; preds = %15
  %21 = and i32 %13, 2097152
  %.not17.i = icmp eq i32 %21, 0
  br i1 %.not17.i, label %42, label %22

22:                                               ; preds = %20
  %23 = lshr i32 %13, 12
  %24 = and i32 %23, 7
  %25 = icmp eq i32 %24, 0
  br i1 %25, label %finishpcallk.exit.i, label %26, !prof !66

26:                                               ; preds = %22
  %27 = load ptr, ptr %6, align 8, !tbaa !27
  %28 = getelementptr inbounds nuw i8, ptr %11, i64 56
  %29 = load i32, ptr %28, align 8, !tbaa !27
  %30 = sext i32 %29 to i64
  %31 = getelementptr inbounds i8, ptr %27, i64 %30
  %32 = lshr i32 %13, 19
  %33 = trunc i32 %32 to i8
  %34 = and i8 %33, 1
  store i8 %34, ptr %7, align 1, !tbaa !45
  %35 = tail call ptr @luaF_close(ptr noundef nonnull %0, ptr noundef %31, i32 noundef %24, i32 noundef 1) #13
  tail call void @luaD_seterrorobj(ptr noundef nonnull %0, i32 noundef %24, ptr noundef %35)
  tail call void @luaD_shrinkstack(ptr noundef nonnull %0)
  %36 = load i32, ptr %12, align 4, !tbaa !43
  %37 = and i32 %36, -28673
  %.pre.pre = load ptr, ptr %3, align 8, !tbaa !46
  br label %finishpcallk.exit.i

finishpcallk.exit.i:                              ; preds = %26, %22
  %.pre = phi ptr [ %.pre.pre, %26 ], [ %11, %22 ]
  %38 = phi i32 [ %37, %26 ], [ %13, %22 ]
  %.0.i.i = phi i32 [ %24, %26 ], [ 1, %22 ]
  %39 = and i32 %38, -2097153
  store i32 %39, ptr %12, align 4, !tbaa !43
  %40 = getelementptr inbounds nuw i8, ptr %11, i64 40
  %41 = load i64, ptr %40, align 8, !tbaa !27
  store i64 %41, ptr %8, align 8, !tbaa !82
  br label %42

42:                                               ; preds = %finishpcallk.exit.i, %20
  %43 = phi ptr [ %.pre, %finishpcallk.exit.i ], [ %11, %20 ]
  %.0.i = phi i32 [ %.0.i.i, %finishpcallk.exit.i ], [ 1, %20 ]
  %44 = getelementptr inbounds nuw i8, ptr %43, i64 8
  %45 = load ptr, ptr %44, align 8, !tbaa !27
  %46 = load ptr, ptr %9, align 8, !tbaa !27
  %47 = icmp ult ptr %45, %46
  br i1 %47, label %48, label %49

48:                                               ; preds = %42
  store ptr %46, ptr %44, align 8, !tbaa !27
  br label %49

49:                                               ; preds = %48, %42
  %50 = getelementptr inbounds nuw i8, ptr %11, i64 32
  %51 = load ptr, ptr %50, align 8, !tbaa !27
  %52 = getelementptr inbounds nuw i8, ptr %11, i64 48
  %53 = load i64, ptr %52, align 8, !tbaa !27
  %54 = tail call i32 %51(ptr noundef nonnull %0, i32 noundef %.0.i, i64 noundef %53) #13
  br label %finishCcall.exit

finishCcall.exit:                                 ; preds = %17, %49
  %.015.i = phi i32 [ %19, %17 ], [ %54, %49 ]
  tail call void @luaD_poscall(ptr noundef nonnull %0, ptr noundef nonnull %11, i32 noundef %.015.i)
  br label %56

55:                                               ; preds = %10
  tail call void @luaV_finishOp(ptr noundef nonnull %0) #13
  tail call void @luaV_execute(ptr noundef nonnull %0, ptr noundef nonnull %11) #13
  br label %56

56:                                               ; preds = %55, %finishCcall.exit
  %57 = load ptr, ptr %3, align 8, !tbaa !46
  %.not = icmp eq ptr %57, %4
  br i1 %.not, label %._crit_edge, label %10

._crit_edge:                                      ; preds = %56, %2
  ret void
}